target datalayout = "e-m:e-p270:32:32-p271:32:32-p272:64:64-i64:64-i128:128-f80:128-n8:16:32:64-S128"
target triple = "x86_64-pc-linux-gnu"

%"struct.Luau::CodeGen::X64::RegisterX64" = type { i8 }
%"struct.Luau::CodeGen::Label" = type { i32, i32 }
%class.anon.587 = type { i8 }

@_ZN4Luau7CodeGen3X64L3raxE = internal constant %"struct.Luau::CodeGen::X64::RegisterX64" { i8 4 }, align 1

; Function Attrs: mustprogress nounwind uwtable
define linkonce_odr dso_local void @_ZN4Luau7CodeGen5LabelC2Ev(ptr noundef nonnull align 4 dereferenceable(8) %0) unnamed_addr #1 comdat align 2 {
  %2 = alloca ptr, align 8
  store ptr %0, ptr %2, align 8
  %3 = load ptr, ptr %2, align 8
  %4 = getelementptr inbounds %"struct.Luau::CodeGen::Label", ptr %3, i32 0, i32 0
  store i32 0, ptr %4, align 4
  %5 = getelementptr inbounds %"struct.Luau::CodeGen::Label", ptr %3, i32 0, i32 1
  store i32 -1, ptr %5, align 4
  ret void
}

; Function Attrs: mustprogress uwtable
define internal void @_ZZN12_GLOBAL__N_121DOCTEST_ANON_CLASS_691fEvENKUlRN4Luau7CodeGen3X6418AssemblyBuilderX64EE_clES5_(ptr noundef nonnull align 1 dereferenceable(1) %0, ptr noundef nonnull align 8 dereferenceable(252) %1) #4 align 2 {
  %3 = alloca ptr, align 8
  %4 = alloca ptr, align 8
  %5 = alloca %"struct.Luau::CodeGen::Label", align 4
  %6 = alloca %"struct.Luau::CodeGen::X64::RegisterX64", align 1
  store ptr %0, ptr %3, align 8
  store ptr %1, ptr %4, align 8
  call void @_ZN4Luau7CodeGen5LabelC2Ev(ptr noundef nonnull align 4 dereferenceable(8) %5) #11
  %7 = load ptr, ptr %4, align 8
  call void @llvm.memcpy.p0.p0.i64(ptr align 1 %6, ptr align 1 @_ZN4Luau7CodeGen3X64L3raxE, i64 1, i1 false)
  %8 = getelementptr inbounds %"struct.Luau::CodeGen::X64::RegisterX64", ptr %6, i32 0, i32 0
  %9 = load i8, ptr %8, align 1
  call void @_ZN4Luau7CodeGen3X6418AssemblyBuilderX643leaENS1_11RegisterX64ERNS0_5LabelE(ptr noundef nonnull align 8 dereferenceable(252) %7, i8 %9, ptr noundef nonnull align 4 dereferenceable(8) %5)
  %10 = load ptr, ptr %4, align 8
  call void @_ZN4Luau7CodeGen3X6418AssemblyBuilderX643retEv(ptr noundef nonnull align 8 dereferenceable(252) %10)
  %11 = load ptr, ptr %4, align 8
  call void @_ZN4Luau7CodeGen3X6418AssemblyBuilderX648setLabelERNS0_5LabelE(ptr noundef nonnull align 8 dereferenceable(252) %11, ptr noundef nonnull align 4 dereferenceable(8) %5)
  %12 = load ptr, ptr %4, align 8
  call void @_ZN4Luau7CodeGen3X6418AssemblyBuilderX643retEv(ptr noundef nonnull align 8 dereferenceable(252) %12)
  ret void
}

; Function Attrs: mustprogress uwtable
define internal void @_ZZN12_GLOBAL__N_121DOCTEST_ANON_CLASS_691fEvENUlRN4Luau7CodeGen3X6418AssemblyBuilderX64EE_8__invokeES5_(ptr noundef nonnull align 8 dereferenceable(252) %0) #4 align 2 {
  %2 = alloca ptr, align 8
  %3 = alloca %class.anon.587, align 1
  store ptr %0, ptr %2, align 8
  %4 = load ptr, ptr %2, align 8
  call void @_ZZN12_GLOBAL__N_121DOCTEST_ANON_CLASS_691fEvENKUlRN4Luau7CodeGen3X6418AssemblyBuilderX64EE_clES5_(ptr noundef nonnull align 1 dereferenceable(1) %3, ptr noundef nonnull align 8 dereferenceable(252) %4)
  ret void
}